target datalayout = "e-m:e-p270:32:32-p271:32:32-p272:64:64-i64:64-i128:128-f80:128-n8:16:32:64-S128"
target triple = "x86_64-pc-linux-gnu"

%struct.Super2_GateStruct_t_ = type { i32, ptr, ptr, ptr }

@s_uMaskBit = internal global i32 0, align 4
@s_uMaskAll = internal global i32 0, align 4

; Function Attrs: nounwind uwtable
define internal i32 @Super2_LibCompareGates(ptr noundef %0, ptr noundef %1) #0 {
  %3 = alloca i32, align 4
  %4 = alloca ptr, align 8
  %5 = alloca ptr, align 8
  %6 = alloca ptr, align 8
  %7 = alloca ptr, align 8
  %8 = alloca i32, align 4
  %9 = alloca i32, align 4
  %10 = alloca i32, align 4
  store ptr %0, ptr %4, align 8, !tbaa !45
  store ptr %1, ptr %5, align 8, !tbaa !45
  call void @llvm.lifetime.start.p0(i64 8, ptr %6) #11
  %11 = load ptr, ptr %4, align 8, !tbaa !45
  %12 = load ptr, ptr %11, align 8, !tbaa !32
  store ptr %12, ptr %6, align 8, !tbaa !32
  call void @llvm.lifetime.start.p0(i64 8, ptr %7) #11
  %13 = load ptr, ptr %5, align 8, !tbaa !45
  %14 = load ptr, ptr %13, align 8, !tbaa !32
  store ptr %14, ptr %7, align 8, !tbaa !32
  call void @llvm.lifetime.start.p0(i64 4, ptr %8) #11
  call void @llvm.lifetime.start.p0(i64 4, ptr %9) #11
  %15 = load ptr, ptr %6, align 8, !tbaa !32
  %16 = getelementptr inbounds nuw %struct.Super2_GateStruct_t_, ptr %15, i32 0, i32 0
  %17 = load i32, ptr %16, align 8, !tbaa !37
  %18 = load i32, ptr @s_uMaskBit, align 4, !tbaa !3
  %19 = and i32 %17, %18
  %20 = icmp ne i32 %19, 0
  br i1 %20, label %21, label %28

21:                                               ; preds = %2
  %22 = load i32, ptr @s_uMaskAll, align 4, !tbaa !3
  %23 = load ptr, ptr %6, align 8, !tbaa !32
  %24 = getelementptr inbounds nuw %struct.Super2_GateStruct_t_, ptr %23, i32 0, i32 0
  %25 = load i32, ptr %24, align 8, !tbaa !37
  %26 = xor i32 %25, -1
  %27 = and i32 %22, %26
  br label %32

28:                                               ; preds = %2
  %29 = load ptr, ptr %6, align 8, !tbaa !32
  %30 = getelementptr inbounds nuw %struct.Super2_GateStruct_t_, ptr %29, i32 0, i32 0
  %31 = load i32, ptr %30, align 8, !tbaa !37
  br label %32

32:                                               ; preds = %28, %21
  %33 = phi i32 [ %27, %21 ], [ %31, %28 ]
  store i32 %33, ptr %8, align 4, !tbaa !3
  %34 = load ptr, ptr %7, align 8, !tbaa !32
  %35 = getelementptr inbounds nuw %struct.Super2_GateStruct_t_, ptr %34, i32 0, i32 0
  %36 = load i32, ptr %35, align 8, !tbaa !37
  %37 = load i32, ptr @s_uMaskBit, align 4, !tbaa !3
  %38 = and i32 %36, %37
  %39 = icmp ne i32 %38, 0
  br i1 %39, label %40, label %47

40:                                               ; preds = %32
  %41 = load i32, ptr @s_uMaskAll, align 4, !tbaa !3
  %42 = load ptr, ptr %7, align 8, !tbaa !32
  %43 = getelementptr inbounds nuw %struct.Super2_GateStruct_t_, ptr %42, i32 0, i32 0
  %44 = load i32, ptr %43, align 8, !tbaa !37
  %45 = xor i32 %44, -1
  %46 = and i32 %41, %45
  br label %51

47:                                               ; preds = %32
  %48 = load ptr, ptr %7, align 8, !tbaa !32
  %49 = getelementptr inbounds nuw %struct.Super2_GateStruct_t_, ptr %48, i32 0, i32 0
  %50 = load i32, ptr %49, align 8, !tbaa !37
  br label %51

51:                                               ; preds = %47, %40
  %52 = phi i32 [ %46, %40 ], [ %50, %47 ]
  store i32 %52, ptr %9, align 4, !tbaa !3
  %53 = load i32, ptr %8, align 4, !tbaa !3
  %54 = load i32, ptr %9, align 4, !tbaa !3
  %55 = icmp ult i32 %53, %54
  br i1 %55, label %56, label %57

56:                                               ; preds = %51
  store i32 -1, ptr %3, align 4
  store i32 1, ptr %10, align 4
  br label %58

57:                                               ; preds = %51
  store i32 1, ptr %3, align 4
  store i32 1, ptr %10, align 4
  br label %58

58:                                               ; preds = %57, %56
  call void @llvm.lifetime.end.p0(i64 4, ptr %9) #11
  call void @llvm.lifetime.end.p0(i64 4, ptr %8) #11
  call void @llvm.lifetime.end.p0(i64 8, ptr %7) #11
  call void @llvm.lifetime.end.p0(i64 8, ptr %6) #11
  %59 = load i32, ptr %3, align 4
  ret i32 %59
}