; Function Attrs: mustprogress nofree norecurse nosync nounwind willreturn memory(read, inaccessiblemem: none) uwtable
define internal range(i32 -1, 2) i32 @Super2_LibCompareGates(ptr noundef readonly captures(none) %0, ptr noundef readonly captures(none) %1) #16 {
  %3 = load ptr, ptr %0, align 8, !tbaa !20
  %4 = load ptr, ptr %1, align 8, !tbaa !20
  %5 = load i32, ptr %3, align 8, !tbaa !22
  %6 = load i32, ptr @s_uMaskBit, align 4, !tbaa !36
  %7 = and i32 %6, %5
  %.not = icmp eq i32 %7, 0
  %8 = load i32, ptr @s_uMaskAll, align 4
  %9 = xor i32 %5, -1
  %10 = and i32 %8, %9
  %11 = select i1 %.not, i32 %5, i32 %10
  %12 = load i32, ptr %4, align 8, !tbaa !22
  %13 = and i32 %12, %6
  %.not10 = icmp eq i32 %13, 0
  %14 = xor i32 %12, -1
  %15 = and i32 %8, %14
  %16 = select i1 %.not10, i32 %12, i32 %15
  %17 = icmp ult i32 %11, %16
  %.0 = select i1 %17, i32 -1, i32 1
  ret i32 %.0
}